target datalayout = "e-m:e-p270:32:32-p271:32:32-p272:64:64-i64:64-i128:128-f80:128-n8:16:32:64-S128"
target triple = "x86_64-pc-linux-gnu"

%"class.G1DirtyCardQueueSet::PausedBuffers::PausedList" = type { ptr, ptr, i64 }

@_ZN20SafepointSynchronize13_safepoint_idE = external global i64, align 8

; Function Attrs: mustprogress nounwind uwtable
define linkonce_odr hidden noundef i64 @_ZN20SafepointSynchronize12safepoint_idEv() #1 comdat align 2 {
  %1 = load i64, ptr @_ZN20SafepointSynchronize13_safepoint_idE, align 8
  ret i64 %1
}

; Function Attrs: mustprogress nounwind uwtable
define hidden void @_ZN19G1DirtyCardQueueSet13PausedBuffers10PausedListC2Ev(ptr noundef nonnull align 8 dereferenceable(24) %0) unnamed_addr #1 align 2 {
  %2 = alloca ptr, align 8
  store ptr %0, ptr %2, align 8
  %3 = load ptr, ptr %2, align 8
  %4 = getelementptr inbounds %"class.G1DirtyCardQueueSet::PausedBuffers::PausedList", ptr %3, i32 0, i32 0
  store volatile ptr null, ptr %4, align 8
  %5 = getelementptr inbounds %"class.G1DirtyCardQueueSet::PausedBuffers::PausedList", ptr %3, i32 0, i32 1
  store ptr null, ptr %5, align 8
  %6 = getelementptr inbounds %"class.G1DirtyCardQueueSet::PausedBuffers::PausedList", ptr %3, i32 0, i32 2
  %7 = call noundef i64 @_ZN20SafepointSynchronize12safepoint_idEv()
  store i64 %7, ptr %6, align 8
  ret void
}