; Function Attrs: mustprogress nofree norecurse nounwind memory(read, argmem: readwrite, inaccessiblemem: readwrite) uwtable
define hidden void @_ZN19G1DirtyCardQueueSet13PausedBuffers10PausedListC2Ev(ptr noundef nonnull align 8 dereferenceable(24) %0) unnamed_addr #5 align 2 {
  store volatile ptr null, ptr %0, align 8
  %2 = getelementptr inbounds i8, ptr %0, i64 8
  store ptr null, ptr %2, align 8
  %3 = getelementptr inbounds i8, ptr %0, i64 16
  %4 = load i64, ptr @_ZN20SafepointSynchronize13_safepoint_idE, align 8
  store i64 %4, ptr %3, align 8
  ret void
}